target datalayout = "e-m:e-p270:32:32-p271:32:32-p272:64:64-i64:64-i128:128-f80:128-n8:16:32:64-S128"
target triple = "x86_64-pc-linux-gnu"

%struct.CVodeMemRec = type { double, ptr, ptr, i32, i32, i32, double, double, ptr, i32, ptr, ptr, i32, ptr, i32, i32, double, double, ptr, i32, i32, i32, ptr, ptr, ptr, i32, i32, ptr, ptr, ptr, i32, double, i32, i32, double, ptr, ptr, i32, ptr, ptr, i32, i32, i32, double, ptr, ptr, [13 x ptr], ptr, ptr, ptr, ptr, ptr, [13 x ptr], ptr, ptr, ptr, ptr, [13 x ptr], ptr, ptr, ptr, ptr, ptr, i32, [13 x ptr], ptr, ptr, ptr, ptr, ptr, i32, double, i32, i32, i32, i32, i32, double, double, double, double, double, double, double, double, [14 x double], [6 x double], [13 x double], double, double, double, double, double, double, double, double, double, double, double, i32, ptr, i32, i64, i32, i32, i32, i32, i32, double, double, double, i64, i64, i64, i64, i64, i64, i64, i64, i64, ptr, i64, i64, ptr, i64, i64, i64, i64, i64, i64, i32, i64, i64, i64, i64, i64, i64, double, double, double, ptr, ptr, ptr, ptr, ptr, i32, i32, i64, double, double, double, i32, double, i32, i32, i32, i32, i32, i32, i32, i32, i32, i32, i32, i32, i32, i32, i32, i32, ptr, ptr, ptr, i32, [6 x [4 x double]], i32, i64, ptr, i32, ptr, ptr, double, double, double, ptr, ptr, ptr, double, double, i32, i32, i64, ptr, i32, i32, ptr, i32 }
%struct.CVadjMemRec = type { double, double, i32, i32, double, ptr, i32, ptr, i32, ptr, i32, ptr, i64, ptr, i64, i32, ptr, ptr, ptr, ptr, i32, i32, i32, i32, [13 x ptr], [13 x ptr], [13 x double], ptr, ptr, i64 }
%struct.CVodeBMemRec = type { i32, double, ptr, i32, i32, ptr, ptr, ptr, ptr, ptr, ptr, ptr, ptr, ptr, double, ptr, ptr }
%struct.CVDlsMemRecB = type { i32, ptr, ptr, ptr, ptr }

@.str.5 = private unnamed_addr constant [7 x i8] c"CVSDLS\00", align 1
@.str.26 = private unnamed_addr constant [25 x i8] c"Bad t for interpolation.\00", align 1
@.str.28 = private unnamed_addr constant [21 x i8] c"cvDlsBandJacBWrapper\00", align 1

; Function Attrs: nounwind uwtable
define internal i32 @cvDlsBandJacBWrapper(i64 noundef %0, i64 noundef %1, i64 noundef %2, double noundef %3, ptr noundef %4, ptr noundef %5, ptr noundef %6, ptr noundef %7, ptr noundef %8, ptr noundef %9, ptr noundef %10) #0 {
  %12 = alloca i32, align 4
  %13 = alloca i64, align 8
  %14 = alloca i64, align 8
  %15 = alloca i64, align 8
  %16 = alloca double, align 8
  %17 = alloca ptr, align 8
  %18 = alloca ptr, align 8
  %19 = alloca ptr, align 8
  %20 = alloca ptr, align 8
  %21 = alloca ptr, align 8
  %22 = alloca ptr, align 8
  %23 = alloca ptr, align 8
  %24 = alloca ptr, align 8
  %25 = alloca ptr, align 8
  %26 = alloca ptr, align 8
  %27 = alloca ptr, align 8
  %28 = alloca i32, align 4
  %29 = alloca i32, align 4
  %30 = alloca i32, align 4
  store i64 %0, ptr %13, align 8, !tbaa !31
  store i64 %1, ptr %14, align 8, !tbaa !31
  store i64 %2, ptr %15, align 8, !tbaa !31
  store double %3, ptr %16, align 8, !tbaa !40
  store ptr %4, ptr %17, align 8, !tbaa !41
  store ptr %5, ptr %18, align 8, !tbaa !41
  store ptr %6, ptr %19, align 8, !tbaa !42
  store ptr %7, ptr %20, align 8, !tbaa !3
  store ptr %8, ptr %21, align 8, !tbaa !41
  store ptr %9, ptr %22, align 8, !tbaa !41
  store ptr %10, ptr %23, align 8, !tbaa !41
  call void @llvm.lifetime.start.p0(i64 8, ptr %24) #5
  call void @llvm.lifetime.start.p0(i64 8, ptr %25) #5
  call void @llvm.lifetime.start.p0(i64 8, ptr %26) #5
  call void @llvm.lifetime.start.p0(i64 8, ptr %27) #5
  call void @llvm.lifetime.start.p0(i64 4, ptr %28) #5
  call void @llvm.lifetime.start.p0(i64 4, ptr %29) #5
  %31 = load ptr, ptr %20, align 8, !tbaa !3
  store ptr %31, ptr %24, align 8, !tbaa !7
  %32 = load ptr, ptr %24, align 8, !tbaa !7
  %33 = getelementptr inbounds nuw %struct.CVodeMemRec, ptr %32, i32 0, i32 194
  %34 = load ptr, ptr %33, align 8, !tbaa !62
  store ptr %34, ptr %25, align 8, !tbaa !63
  %35 = load ptr, ptr %25, align 8, !tbaa !63
  %36 = getelementptr inbounds nuw %struct.CVadjMemRec, ptr %35, i32 0, i32 7
  %37 = load ptr, ptr %36, align 8, !tbaa !81
  store ptr %37, ptr %26, align 8, !tbaa !70
  %38 = load ptr, ptr %26, align 8, !tbaa !70
  %39 = getelementptr inbounds nuw %struct.CVodeBMemRec, ptr %38, i32 0, i32 10
  %40 = load ptr, ptr %39, align 8, !tbaa !76
  store ptr %40, ptr %27, align 8, !tbaa !77
  %41 = load ptr, ptr %25, align 8, !tbaa !63
  %42 = getelementptr inbounds nuw %struct.CVadjMemRec, ptr %41, i32 0, i32 19
  %43 = load ptr, ptr %42, align 8, !tbaa !82
  %44 = load ptr, ptr %24, align 8, !tbaa !7
  %45 = load double, ptr %16, align 8, !tbaa !40
  %46 = load ptr, ptr %25, align 8, !tbaa !63
  %47 = getelementptr inbounds nuw %struct.CVadjMemRec, ptr %46, i32 0, i32 27
  %48 = load ptr, ptr %47, align 8, !tbaa !83
  %49 = call i32 %43(ptr noundef %44, double noundef %45, ptr noundef %48, ptr noundef null)
  store i32 %49, ptr %29, align 4, !tbaa !43
  %50 = load i32, ptr %29, align 4, !tbaa !43
  %51 = icmp ne i32 %50, 0
  br i1 %51, label %52, label %54

52:                                               ; preds = %11
  %53 = load ptr, ptr %24, align 8, !tbaa !7
  call void (ptr, i32, ptr, ptr, ptr, ...) @cvProcessError(ptr noundef %53, i32 noundef -1, ptr noundef @.str.5, ptr noundef @.str.28, ptr noundef @.str.26)
  store i32 -1, ptr %12, align 4
  store i32 1, ptr %30, align 4
  br label %76

54:                                               ; preds = %11
  %55 = load ptr, ptr %27, align 8, !tbaa !77
  %56 = getelementptr inbounds nuw %struct.CVDlsMemRecB, ptr %55, i32 0, i32 3
  %57 = load ptr, ptr %56, align 8, !tbaa !90
  %58 = load i64, ptr %13, align 8, !tbaa !31
  %59 = load i64, ptr %14, align 8, !tbaa !31
  %60 = load i64, ptr %15, align 8, !tbaa !31
  %61 = load double, ptr %16, align 8, !tbaa !40
  %62 = load ptr, ptr %25, align 8, !tbaa !63
  %63 = getelementptr inbounds nuw %struct.CVadjMemRec, ptr %62, i32 0, i32 27
  %64 = load ptr, ptr %63, align 8, !tbaa !83
  %65 = load ptr, ptr %17, align 8, !tbaa !41
  %66 = load ptr, ptr %18, align 8, !tbaa !41
  %67 = load ptr, ptr %19, align 8, !tbaa !42
  %68 = load ptr, ptr %26, align 8, !tbaa !70
  %69 = getelementptr inbounds nuw %struct.CVodeBMemRec, ptr %68, i32 0, i32 9
  %70 = load ptr, ptr %69, align 8, !tbaa !84
  %71 = load ptr, ptr %21, align 8, !tbaa !41
  %72 = load ptr, ptr %22, align 8, !tbaa !41
  %73 = load ptr, ptr %23, align 8, !tbaa !41
  %74 = call i32 %57(i64 noundef %58, i64 noundef %59, i64 noundef %60, double noundef %61, ptr noundef %64, ptr noundef %65, ptr noundef %66, ptr noundef %67, ptr noundef %70, ptr noundef %71, ptr noundef %72, ptr noundef %73)
  store i32 %74, ptr %28, align 4, !tbaa !43
  %75 = load i32, ptr %28, align 4, !tbaa !43
  store i32 %75, ptr %12, align 4
  store i32 1, ptr %30, align 4
  br label %76

76:                                               ; preds = %54, %52
  call void @llvm.lifetime.end.p0(i64 4, ptr %29) #5
  call void @llvm.lifetime.end.p0(i64 4, ptr %28) #5
  call void @llvm.lifetime.end.p0(i64 8, ptr %27) #5
  call void @llvm.lifetime.end.p0(i64 8, ptr %26) #5
  call void @llvm.lifetime.end.p0(i64 8, ptr %25) #5
  call void @llvm.lifetime.end.p0(i64 8, ptr %24) #5
  %77 = load i32, ptr %12, align 4
  ret i32 %77
}