; Function Attrs: nounwind uwtable
define internal i32 @cvDlsBandJacBWrapper(i64 noundef %0, i64 noundef %1, i64 noundef %2, double noundef %3, ptr noundef %4, ptr noundef %5, ptr noundef %6, ptr noundef %7, ptr noundef %8, ptr noundef %9, ptr noundef %10) #0 {
  %12 = getelementptr inbounds nuw i8, ptr %7, i64 2192
  %13 = load ptr, ptr %12, align 8, !tbaa !51
  %14 = getelementptr inbounds nuw i8, ptr %13, i64 48
  %15 = load ptr, ptr %14, align 8, !tbaa !66
  %16 = getelementptr inbounds nuw i8, ptr %15, i64 72
  %17 = load ptr, ptr %16, align 8, !tbaa !63
  %18 = getelementptr inbounds nuw i8, ptr %13, i64 144
  %19 = load ptr, ptr %18, align 8, !tbaa !67
  %20 = getelementptr inbounds nuw i8, ptr %13, i64 480
  %21 = load ptr, ptr %20, align 8, !tbaa !68
  %22 = tail call i32 %19(ptr noundef %7, double noundef %3, ptr noundef %21, ptr noundef null) #6
  %.not = icmp eq i32 %22, 0
  br i1 %.not, label %24, label %23

23:                                               ; preds = %11
  tail call void (ptr, i32, ptr, ptr, ptr, ...) @cvProcessError(ptr noundef nonnull %7, i32 noundef -1, ptr noundef nonnull @.str.5, ptr noundef nonnull @.str.28, ptr noundef nonnull @.str.26) #6
  br label %31

24:                                               ; preds = %11
  %25 = getelementptr inbounds nuw i8, ptr %17, i64 24
  %26 = load ptr, ptr %25, align 8, !tbaa !73
  %27 = load ptr, ptr %20, align 8, !tbaa !68
  %28 = getelementptr inbounds nuw i8, ptr %15, i64 64
  %29 = load ptr, ptr %28, align 8, !tbaa !69
  %30 = tail call i32 %26(i64 noundef %0, i64 noundef %1, i64 noundef %2, double noundef %3, ptr noundef %27, ptr noundef %4, ptr noundef %5, ptr noundef %6, ptr noundef %29, ptr noundef %8, ptr noundef %9, ptr noundef %10) #6
  br label %31

31:                                               ; preds = %24, %23
  %.0 = phi i32 [ -1, %23 ], [ %30, %24 ]
  ret i32 %.0
}